target datalayout = "e-m:e-p270:32:32-p271:32:32-p272:64:64-i64:64-i128:128-f80:128-n8:16:32:64-S128"
target triple = "x86_64-pc-linux-gnu"

@.str.138 = private unnamed_addr constant [19 x i8] c"infiniband.payload\00", align 1
@proto_infiniband = internal global i32 0, align 4
@ib_handle = internal global ptr null, align 8
@pref_rroce_udp_port = internal global i32 4791, align 4
@ib_link_handle = internal global ptr null, align 8
@.str.1060 = private unnamed_addr constant [14 x i8] c"Mellanox EoIB\00", align 1
@proto_mellanox_eoib = internal global i32 0, align 4
@proto_reg_handoff_infiniband.initialized = internal global i8 0, align 1
@proto_reg_handoff_infiniband.prev_rroce_udp_port = internal global i32 0, align 4
@proto_reg_handoff_infiniband.rroce_handle = internal global ptr null, align 8
@.str.1063 = private unnamed_addr constant [5 x i8] c"ipv6\00", align 1
@ipv6_handle = internal global ptr null, align 8
@.str.1064 = private unnamed_addr constant [15 x i8] c"eth_withoutfcs\00", align 1
@eth_handle = internal global ptr null, align 8
@.str.1065 = private unnamed_addr constant [10 x i8] c"ethertype\00", align 1
@ethertype_dissector_table = internal global ptr null, align 8
@.str.1066 = private unnamed_addr constant [15 x i8] c"erf.types.type\00", align 1
@.str.1067 = private unnamed_addr constant [9 x i8] c"ip.proto\00", align 1
@.str.1068 = private unnamed_addr constant [11 x i8] c"wtap_encap\00", align 1
@.str.1069 = private unnamed_addr constant [14 x i8] c"mellanox_eoib\00", align 1
@.str.1070 = private unnamed_addr constant [17 x i8] c"Ethernet over IB\00", align 1
@.str.1071 = private unnamed_addr constant [12 x i8] c"eth_over_ib\00", align 1
@.str.1072 = private unnamed_addr constant [9 x i8] c"udp.port\00", align 1

; Function Attrs: null_pointer_is_valid sspstrong uwtable
define hidden void @proto_reg_handoff_infiniband() #0 {
  %1 = alloca ptr, align 8
  %2 = alloca i32, align 4
  %3 = load i8, ptr @proto_reg_handoff_infiniband.initialized, align 1, !range !6, !noundef !7
  %4 = trunc i8 %3 to i1
  br i1 %4, label %22, label %5

5:                                                ; preds = %0
  call void @llvm.lifetime.start.p0(i64 8, ptr %1) #18
  call void @llvm.lifetime.start.p0(i64 4, ptr %2) #18
  %6 = load i32, ptr @proto_infiniband, align 4
  %7 = call ptr @find_dissector_add_dependency(ptr noundef @.str.1063, i32 noundef %6)
  store ptr %7, ptr @ipv6_handle, align 8
  %8 = call ptr @find_dissector(ptr noundef @.str.1064)
  store ptr %8, ptr @eth_handle, align 8
  %9 = call ptr @find_dissector_table(ptr noundef @.str.1065)
  store ptr %9, ptr @ethertype_dissector_table, align 8
  %10 = load ptr, ptr @ib_handle, align 8
  call void @dissector_add_uint(ptr noundef @.str.1066, i32 noundef 21, ptr noundef %10)
  %11 = load ptr, ptr @ib_link_handle, align 8
  call void @dissector_add_uint(ptr noundef @.str.1066, i32 noundef 25, ptr noundef %11)
  %12 = load i32, ptr @proto_infiniband, align 4
  %13 = call ptr @create_dissector_handle(ptr noundef @dissect_roce, i32 noundef %12)
  store ptr %13, ptr %1, align 8
  %14 = load ptr, ptr %1, align 8
  call void @dissector_add_uint(ptr noundef @.str.1065, i32 noundef 35093, ptr noundef %14)
  %15 = load i32, ptr @proto_infiniband, align 4
  %16 = call ptr @create_dissector_handle(ptr noundef @dissect_rroce, i32 noundef %15)
  store ptr %16, ptr @proto_reg_handoff_infiniband.rroce_handle, align 8
  %17 = load ptr, ptr @proto_reg_handoff_infiniband.rroce_handle, align 8
  call void @dissector_add_for_decode_as(ptr noundef @.str.1067, ptr noundef %17)
  %18 = load ptr, ptr @ib_handle, align 8
  call void @dissector_add_uint(ptr noundef @.str.1068, i32 noundef 150, ptr noundef %18)
  %19 = load i32, ptr @proto_mellanox_eoib, align 4
  call void @heur_dissector_add(ptr noundef @.str.138, ptr noundef @dissect_mellanox_eoib, ptr noundef @.str.1060, ptr noundef @.str.1069, i32 noundef %19, i32 noundef 1)
  %20 = call i32 @proto_get_id_by_filter_name(ptr noundef @.str.1065)
  store i32 %20, ptr %2, align 4
  %21 = load i32, ptr %2, align 4
  call void @heur_dissector_add(ptr noundef @.str.138, ptr noundef @dissect_eth_over_ib, ptr noundef @.str.1070, ptr noundef @.str.1071, i32 noundef %21, i32 noundef 1)
  store i8 1, ptr @proto_reg_handoff_infiniband.initialized, align 1
  call void @llvm.lifetime.end.p0(i64 4, ptr %2) #18
  call void @llvm.lifetime.end.p0(i64 8, ptr %1) #18
  br label %25

22:                                               ; preds = %0
  %23 = load i32, ptr @proto_reg_handoff_infiniband.prev_rroce_udp_port, align 4
  %24 = load ptr, ptr @proto_reg_handoff_infiniband.rroce_handle, align 8
  call void @dissector_delete_uint(ptr noundef @.str.1072, i32 noundef %23, ptr noundef %24)
  br label %25

25:                                               ; preds = %22, %5
  %26 = load i32, ptr @pref_rroce_udp_port, align 4
  store i32 %26, ptr @proto_reg_handoff_infiniband.prev_rroce_udp_port, align 4
  %27 = load i32, ptr @pref_rroce_udp_port, align 4
  %28 = load ptr, ptr @proto_reg_handoff_infiniband.rroce_handle, align 8
  call void @dissector_add_uint(ptr noundef @.str.1072, i32 noundef %27, ptr noundef %28)
  ret void
}