; Function Attrs: null_pointer_is_valid sspstrong uwtable
define hidden void @proto_reg_handoff_infiniband() #0 {
  %.b1 = load i1, ptr @proto_reg_handoff_infiniband.initialized, align 1
  br i1 %.b1, label %15, label %1

1:                                                ; preds = %0
  %2 = load i32, ptr @proto_infiniband, align 4
  %3 = tail call ptr @find_dissector_add_dependency(ptr noundef nonnull @.str.1063, i32 noundef %2)
  store ptr %3, ptr @ipv6_handle, align 8
  %4 = tail call ptr @find_dissector(ptr noundef nonnull @.str.1064)
  store ptr %4, ptr @eth_handle, align 8
  %5 = tail call ptr @find_dissector_table(ptr noundef nonnull @.str.1065)
  store ptr %5, ptr @ethertype_dissector_table, align 8
  %6 = load ptr, ptr @ib_handle, align 8
  tail call void @dissector_add_uint(ptr noundef nonnull @.str.1066, i32 noundef 21, ptr noundef %6)
  %7 = load ptr, ptr @ib_link_handle, align 8
  tail call void @dissector_add_uint(ptr noundef nonnull @.str.1066, i32 noundef 25, ptr noundef %7)
  %8 = load i32, ptr @proto_infiniband, align 4
  %9 = tail call ptr @create_dissector_handle(ptr noundef nonnull @dissect_roce, i32 noundef %8)
  tail call void @dissector_add_uint(ptr noundef nonnull @.str.1065, i32 noundef 35093, ptr noundef %9)
  %10 = load i32, ptr @proto_infiniband, align 4
  %11 = tail call ptr @create_dissector_handle(ptr noundef nonnull @dissect_rroce, i32 noundef %10)
  store ptr %11, ptr @proto_reg_handoff_infiniband.rroce_handle, align 8
  tail call void @dissector_add_for_decode_as(ptr noundef nonnull @.str.1067, ptr noundef %11)
  %12 = load ptr, ptr @ib_handle, align 8
  tail call void @dissector_add_uint(ptr noundef nonnull @.str.1068, i32 noundef 150, ptr noundef %12)
  %13 = load i32, ptr @proto_mellanox_eoib, align 4
  tail call void @heur_dissector_add(ptr noundef nonnull @.str.138, ptr noundef nonnull @dissect_mellanox_eoib, ptr noundef nonnull @.str.1060, ptr noundef nonnull @.str.1069, i32 noundef %13, i32 noundef 1)
  %14 = tail call i32 @proto_get_id_by_filter_name(ptr noundef nonnull @.str.1065)
  tail call void @heur_dissector_add(ptr noundef nonnull @.str.138, ptr noundef nonnull @dissect_eth_over_ib, ptr noundef nonnull @.str.1070, ptr noundef nonnull @.str.1071, i32 noundef %14, i32 noundef 1)
  store i1 true, ptr @proto_reg_handoff_infiniband.initialized, align 1
  br label %18

15:                                               ; preds = %0
  %16 = load i32, ptr @proto_reg_handoff_infiniband.prev_rroce_udp_port, align 4
  %17 = load ptr, ptr @proto_reg_handoff_infiniband.rroce_handle, align 8
  tail call void @dissector_delete_uint(ptr noundef nonnull @.str.1072, i32 noundef %16, ptr noundef %17)
  br label %18

18:                                               ; preds = %15, %1
  %19 = load i32, ptr @pref_rroce_udp_port, align 4
  store i32 %19, ptr @proto_reg_handoff_infiniband.prev_rroce_udp_port, align 4
  %20 = load ptr, ptr @proto_reg_handoff_infiniband.rroce_handle, align 8
  tail call void @dissector_add_uint(ptr noundef nonnull @.str.1072, i32 noundef %19, ptr noundef %20)
  ret void
}